MSP430 Assembler Unix v21.6.1 Thu Sep  5 21:47:41 2024

Copyright (c) 2003-2018 Texas Instruments Incorporated
/var/tmp/TIbXmxGUgIF                                                 PAGE    1

       1            ;******************************************************************************
       2            ;* MSP430 G3 C/C++ Codegen                                          Unix v21.6.1.LTS *
       3            ;* Date/Time created: Thu Sep  5 21:47:41 2024                                *
       4            ;******************************************************************************
       5                    .compiler_opts --abi=eabi --diag_wrap=off --hll_source=on --mem_model:code=large --mem_model:d
       6            
       7            $C$DW$CU        .dwtag  DW_TAG_compile_unit
       8                    .dwattr $C$DW$CU, DW_AT_name("../main.c")
       9                    .dwattr $C$DW$CU, DW_AT_producer("TI MSP430 G3 C/C++ Codegen Unix v21.6.1.LTS Copyright (c) 20
      10                    .dwattr $C$DW$CU, DW_AT_TI_version(0x01)
      11                    .dwattr $C$DW$CU, DW_AT_comp_dir("/Users/giannafoti/workspace_v12/Lab2_BONUS/Debug")
      12            $C$DW$1 .dwtag  DW_TAG_variable
      13                    .dwattr $C$DW$1, DW_AT_name("PAIN_L")
      14                    .dwattr $C$DW$1, DW_AT_TI_symbol_name("PAIN_L")
      15                    .dwattr $C$DW$1, DW_AT_type(*$C$DW$T$23)
      16                    .dwattr $C$DW$1, DW_AT_declaration
      17                    .dwattr $C$DW$1, DW_AT_external
      18                    .dwattr $C$DW$1, DW_AT_decl_file("/Applications/ti/ccs1280/ccs/ccs_base/msp430/include/msp430f
      19                    .dwattr $C$DW$1, DW_AT_decl_line(0x5c0)
      20                    .dwattr $C$DW$1, DW_AT_decl_column(0x01)
      21            
      22            $C$DW$2 .dwtag  DW_TAG_variable
      23                    .dwattr $C$DW$2, DW_AT_name("PAIN_H")
      24                    .dwattr $C$DW$2, DW_AT_TI_symbol_name("PAIN_H")
      25                    .dwattr $C$DW$2, DW_AT_type(*$C$DW$T$23)
      26                    .dwattr $C$DW$2, DW_AT_declaration
      27                    .dwattr $C$DW$2, DW_AT_external
      28                    .dwattr $C$DW$2, DW_AT_decl_file("/Applications/ti/ccs1280/ccs/ccs_base/msp430/include/msp430f
      29                    .dwattr $C$DW$2, DW_AT_decl_line(0x5c1)
      30                    .dwattr $C$DW$2, DW_AT_decl_column(0x01)
      31            
      32            $C$DW$3 .dwtag  DW_TAG_variable
      33                    .dwattr $C$DW$3, DW_AT_name("PAOUT_L")
      34                    .dwattr $C$DW$3, DW_AT_TI_symbol_name("PAOUT_L")
      35                    .dwattr $C$DW$3, DW_AT_type(*$C$DW$T$23)
      36                    .dwattr $C$DW$3, DW_AT_declaration
      37                    .dwattr $C$DW$3, DW_AT_external
      38                    .dwattr $C$DW$3, DW_AT_decl_file("/Applications/ti/ccs1280/ccs/ccs_base/msp430/include/msp430f
      39                    .dwattr $C$DW$3, DW_AT_decl_line(0x5c3)
      40                    .dwattr $C$DW$3, DW_AT_decl_column(0x01)
      41            
      42            $C$DW$4 .dwtag  DW_TAG_variable
      43                    .dwattr $C$DW$4, DW_AT_name("PAOUT_H")
      44                    .dwattr $C$DW$4, DW_AT_TI_symbol_name("PAOUT_H")
      45                    .dwattr $C$DW$4, DW_AT_type(*$C$DW$T$23)
      46                    .dwattr $C$DW$4, DW_AT_declaration
      47                    .dwattr $C$DW$4, DW_AT_external
      48                    .dwattr $C$DW$4, DW_AT_decl_file("/Applications/ti/ccs1280/ccs/ccs_base/msp430/include/msp430f
      49                    .dwattr $C$DW$4, DW_AT_decl_line(0x5c4)
      50                    .dwattr $C$DW$4, DW_AT_decl_column(0x01)
      51            
      52            $C$DW$5 .dwtag  DW_TAG_variable
      53                    .dwattr $C$DW$5, DW_AT_name("PADIR_L")
      54                    .dwattr $C$DW$5, DW_AT_TI_symbol_name("PADIR_L")
      55                    .dwattr $C$DW$5, DW_AT_type(*$C$DW$T$23)
MSP430 Assembler Unix v21.6.1 Thu Sep  5 21:47:41 2024

Copyright (c) 2003-2018 Texas Instruments Incorporated
/var/tmp/TIbXmxGUgIF                                                 PAGE    2

      56                    .dwattr $C$DW$5, DW_AT_declaration
      57                    .dwattr $C$DW$5, DW_AT_external
      58                    .dwattr $C$DW$5, DW_AT_decl_file("/Applications/ti/ccs1280/ccs/ccs_base/msp430/include/msp430f
      59                    .dwattr $C$DW$5, DW_AT_decl_line(0x5c6)
      60                    .dwattr $C$DW$5, DW_AT_decl_column(0x01)
      61            
      62            $C$DW$6 .dwtag  DW_TAG_variable
      63                    .dwattr $C$DW$6, DW_AT_name("PADIR_H")
      64                    .dwattr $C$DW$6, DW_AT_TI_symbol_name("PADIR_H")
      65                    .dwattr $C$DW$6, DW_AT_type(*$C$DW$T$23)
      66                    .dwattr $C$DW$6, DW_AT_declaration
      67                    .dwattr $C$DW$6, DW_AT_external
      68                    .dwattr $C$DW$6, DW_AT_decl_file("/Applications/ti/ccs1280/ccs/ccs_base/msp430/include/msp430f
      69                    .dwattr $C$DW$6, DW_AT_decl_line(0x5c7)
      70                    .dwattr $C$DW$6, DW_AT_decl_column(0x01)
      71            
      72            $C$DW$7 .dwtag  DW_TAG_variable
      73                    .dwattr $C$DW$7, DW_AT_name("PAREN_L")
      74                    .dwattr $C$DW$7, DW_AT_TI_symbol_name("PAREN_L")
      75                    .dwattr $C$DW$7, DW_AT_type(*$C$DW$T$23)
      76                    .dwattr $C$DW$7, DW_AT_declaration
      77                    .dwattr $C$DW$7, DW_AT_external
      78                    .dwattr $C$DW$7, DW_AT_decl_file("/Applications/ti/ccs1280/ccs/ccs_base/msp430/include/msp430f
      79                    .dwattr $C$DW$7, DW_AT_decl_line(0x5c9)
      80                    .dwattr $C$DW$7, DW_AT_decl_column(0x01)
      81            
      82            $C$DW$8 .dwtag  DW_TAG_variable
      83                    .dwattr $C$DW$8, DW_AT_name("PAREN_H")
      84                    .dwattr $C$DW$8, DW_AT_TI_symbol_name("PAREN_H")
      85                    .dwattr $C$DW$8, DW_AT_type(*$C$DW$T$23)
      86                    .dwattr $C$DW$8, DW_AT_declaration
      87                    .dwattr $C$DW$8, DW_AT_external
      88                    .dwattr $C$DW$8, DW_AT_decl_file("/Applications/ti/ccs1280/ccs/ccs_base/msp430/include/msp430f
      89                    .dwattr $C$DW$8, DW_AT_decl_line(0x5ca)
      90                    .dwattr $C$DW$8, DW_AT_decl_column(0x01)
      91            
      92            $C$DW$9 .dwtag  DW_TAG_variable
      93                    .dwattr $C$DW$9, DW_AT_name("PBOUT_H")
      94                    .dwattr $C$DW$9, DW_AT_TI_symbol_name("PBOUT_H")
      95                    .dwattr $C$DW$9, DW_AT_type(*$C$DW$T$23)
      96                    .dwattr $C$DW$9, DW_AT_declaration
      97                    .dwattr $C$DW$9, DW_AT_external
      98                    .dwattr $C$DW$9, DW_AT_decl_file("/Applications/ti/ccs1280/ccs/ccs_base/msp430/include/msp430f
      99                    .dwattr $C$DW$9, DW_AT_decl_line(0x61e)
     100                    .dwattr $C$DW$9, DW_AT_decl_column(0x01)
     101            
     102            $C$DW$10        .dwtag  DW_TAG_variable
     103                    .dwattr $C$DW$10, DW_AT_name("PBDIR_H")
     104                    .dwattr $C$DW$10, DW_AT_TI_symbol_name("PBDIR_H")
     105                    .dwattr $C$DW$10, DW_AT_type(*$C$DW$T$23)
     106                    .dwattr $C$DW$10, DW_AT_declaration
     107                    .dwattr $C$DW$10, DW_AT_external
     108                    .dwattr $C$DW$10, DW_AT_decl_file("/Applications/ti/ccs1280/ccs/ccs_base/msp430/include/msp430
     109                    .dwattr $C$DW$10, DW_AT_decl_line(0x621)
     110                    .dwattr $C$DW$10, DW_AT_decl_column(0x01)
MSP430 Assembler Unix v21.6.1 Thu Sep  5 21:47:41 2024

Copyright (c) 2003-2018 Texas Instruments Incorporated
/var/tmp/TIbXmxGUgIF                                                 PAGE    3

     111            
     112            $C$DW$11        .dwtag  DW_TAG_variable
     113                    .dwattr $C$DW$11, DW_AT_name("WDTCTL")
     114                    .dwattr $C$DW$11, DW_AT_TI_symbol_name("WDTCTL")
     115                    .dwattr $C$DW$11, DW_AT_type(*$C$DW$T$24)
     116                    .dwattr $C$DW$11, DW_AT_declaration
     117                    .dwattr $C$DW$11, DW_AT_external
     118                    .dwattr $C$DW$11, DW_AT_decl_file("/Applications/ti/ccs1280/ccs/ccs_base/msp430/include/msp430
     119                    .dwattr $C$DW$11, DW_AT_decl_line(0x1232)
     120                    .dwattr $C$DW$11, DW_AT_decl_column(0x01)
     121            
     122            ;       /Applications/ti/ccs1280/ccs/tools/compiler/ti-cgt-msp430_21.6.1.LTS/bin/acpia430 -@/var/tmp/T
     123 000000               .sect   ".text:main"
     124                    .clink
     125                    .global main
     126            
     127            $C$DW$12        .dwtag  DW_TAG_subprogram
     128                    .dwattr $C$DW$12, DW_AT_name("main")
     129                    .dwattr $C$DW$12, DW_AT_low_pc(main)
     130                    .dwattr $C$DW$12, DW_AT_high_pc(0x00)
     131                    .dwattr $C$DW$12, DW_AT_TI_symbol_name("main")
     132                    .dwattr $C$DW$12, DW_AT_external
     133                    .dwattr $C$DW$12, DW_AT_TI_begin_file("../main.c")
     134                    .dwattr $C$DW$12, DW_AT_TI_begin_line(0x12)
     135                    .dwattr $C$DW$12, DW_AT_TI_begin_column(0x06)
     136                    .dwattr $C$DW$12, DW_AT_decl_file("../main.c")
     137                    .dwattr $C$DW$12, DW_AT_decl_line(0x12)
     138                    .dwattr $C$DW$12, DW_AT_decl_column(0x06)
     139                    .dwattr $C$DW$12, DW_AT_TI_max_frame_size(0x06)
     140                    .dwpsn  file "../main.c",line 19,column 1,is_stmt,address main,isa 0
     141            
     142                    .dwfde $C$DW$CIE, main
     143            
     144            ;*****************************************************************************
     145            ;* FUNCTION NAME: main                                                       *
     146            ;*                                                                           *
     147            ;*   Regs Modified     : SP,SR                                               *
     148            ;*   Regs Used         : SP,SR                                               *
     149            ;*   Local Frame Size  : 0 Args + 2 Auto + 0 Save = 2 byte                   *
     150            ;*****************************************************************************
     151 000000       main:
     152            ;* --------------------------------------------------------------------------*
     153                    .dwcfi  cfa_offset, 4
     154                    .dwcfi  save_reg_to_mem, 16, -4
     155 000000 03F1          SUBA      #2,SP                 ; [] 
     156                    .dwcfi  cfa_offset, 6
     157            $C$DW$13        .dwtag  DW_TAG_variable
     158                    .dwattr $C$DW$13, DW_AT_name("i")
     159                    .dwattr $C$DW$13, DW_AT_TI_symbol_name("i")
     160                    .dwattr $C$DW$13, DW_AT_type(*$C$DW$T$11)
     161                    .dwattr $C$DW$13, DW_AT_location[DW_OP_breg1 0]
     162            
     163                    .dwpsn  file "../main.c",line 21,column 5,is_stmt,isa 0
     164 000002 40B2          MOV.W     #23168,&WDTCTL+0      ; [] |21| 
         000004 5A80 
MSP430 Assembler Unix v21.6.1 Thu Sep  5 21:47:41 2024

Copyright (c) 2003-2018 Texas Instruments Incorporated
/var/tmp/TIbXmxGUgIF                                                 PAGE    4

         000006 0000!
     165                    .dwpsn  file "../main.c",line 24,column 5,is_stmt,isa 0
     166 000008 D3D2          OR.B      #1,&PADIR_L+0         ; [] |24| 
         00000a 0000!
     167                    .dwpsn  file "../main.c",line 26,column 5,is_stmt,isa 0
     168 00000c D0F2          OR.B      #128,&PBDIR_H+0       ; [] |26| 
         00000e 0080 
         000010 0000!
     169                    .dwpsn  file "../main.c",line 29,column 5,is_stmt,isa 0
     170 000012 D3D2          OR.B      #1,&PAOUT_L+0         ; [] |29| 
         000014 0000!
     171                    .dwpsn  file "../main.c",line 30,column 5,is_stmt,isa 0
     172 000016 F0F2          AND.B     #127,&PBOUT_H+0       ; [] |30| 
         000018 007F 
         00001a 0000!
     173                    .dwpsn  file "../main.c",line 33,column 5,is_stmt,isa 0
     174 00001c C3E2          BIC.B     #2,&PADIR_H+0         ; [] |33| 
         00001e 0000!
     175                    .dwpsn  file "../main.c",line 34,column 5,is_stmt,isa 0
     176 000020 D3E2          OR.B      #2,&PAREN_H+0         ; [] |34| 
         000022 0000!
     177                    .dwpsn  file "../main.c",line 35,column 5,is_stmt,isa 0
     178 000024 D3E2          OR.B      #2,&PAOUT_H+0         ; [] |35| 
         000026 0000!
     179                    .dwpsn  file "../main.c",line 38,column 5,is_stmt,isa 0
     180 000028 C3E2          BIC.B     #2,&PADIR_L+0         ; [] |38| 
         00002a 0000!
     181                    .dwpsn  file "../main.c",line 39,column 5,is_stmt,isa 0
     182 00002c D3E2          OR.B      #2,&PAREN_L+0         ; [] |39| 
         00002e 0000!
     183                    .dwpsn  file "../main.c",line 40,column 5,is_stmt,isa 0
     184 000030 D3E2          OR.B      #2,&PAOUT_L+0         ; [] |40| 
         000032 0000!
     185                    .dwpsn  file "../main.c",line 42,column 20,is_stmt,isa 0
     186 000034 4381          MOV.W     #0,0(SP)              ; [] |42| 
         000036 0000 
     187                    .dwpsn  file "../main.c",line 44,column 12,is_stmt,isa 0
     188            ;* --------------------------------------------------------------------------*
     189            ;*   BEGIN LOOP $C$L1
     190            ;*
     191            ;*   Loop source line                : 44
     192            ;*   Loop closing brace source line  : 81
     193            ;*   Known Minimum Trip Count        : 1
     194            ;*   Known Maximum Trip Count        : 4294967295
     195            ;*   Known Max Trip Count Factor     : 1
     196            ;* --------------------------------------------------------------------------*
     197 000038       $C$L1:    
     198                    .dwpsn  file "../main.c",line 46,column 9,is_stmt,isa 0
     199 000038 B3E2          BIT.B     #2,&PAIN_H+0          ; [] |46| 
         00003a 0000!
     200 00003c 201E          JNE       $C$L4                 ; [] |46| 
     201                                                      ; [] |46| 
     202            ;* --------------------------------------------------------------------------*
     203 00003e B3E2          BIT.B     #2,&PAIN_L+0          ; [] |46| 
         000040 0000!
MSP430 Assembler Unix v21.6.1 Thu Sep  5 21:47:41 2024

Copyright (c) 2003-2018 Texas Instruments Incorporated
/var/tmp/TIbXmxGUgIF                                                 PAGE    5

     204 000042 241B          JEQ       $C$L4                 ; [] |46| 
     205                                                      ; [] |46| 
     206            ;* --------------------------------------------------------------------------*
     207                    .dwpsn  file "../main.c",line 48,column 18,is_stmt,isa 0
     208 000044 40B1          MOV.W     #2000,0(SP)           ; [] |48| 
         000046 07D0 
         000048 0000 
     209                    .dwpsn  file "../main.c",line 48,column 28,is_stmt,isa 0
     210 00004a 9381          TST.W     0(SP)                 ; [] |48| 
         00004c 0000 
     211 00004e 2405          JEQ       $C$L3                 ; [] |48| 
     212                                                      ; [] |48| 
     213            ;* --------------------------------------------------------------------------*
     214            ;*   BEGIN LOOP $C$L2
     215            ;*
     216            ;*   Loop source line                : 48
     217            ;*   Loop closing brace source line  : 48
     218            ;*   Known Minimum Trip Count        : 1
     219            ;*   Known Maximum Trip Count        : 4294967295
     220            ;*   Known Max Trip Count Factor     : 1
     221            ;* --------------------------------------------------------------------------*
     222 000050       $C$L2:    
     223                    .dwpsn  file "../main.c",line 48,column 35,is_stmt,isa 0
     224 000050 8391          SUB.W     #1,0(SP)              ; [] |48| 
         000052 0000 
     225                    .dwpsn  file "../main.c",line 48,column 28,is_stmt,isa 0
     226 000054 9381          TST.W     0(SP)                 ; [] |48| 
         000056 0000 
     227 000058 23FB          JNE       $C$L2                 ; [] |48| 
     228                                                      ; [] |48| 
     229            ;* --------------------------------------------------------------------------*
     230 00005a       $C$L3:    
     231                    .dwpsn  file "../main.c",line 49,column 13,is_stmt,isa 0
     232 00005a B3E2          BIT.B     #2,&PAIN_H+0          ; [] |49| 
         00005c 0000!
     233 00005e 23EC          JNE       $C$L1                 ; [] |49| 
     234                                                      ; [] |49| 
     235            ;* --------------------------------------------------------------------------*
     236                    .dwpsn  file "../main.c",line 51,column 17,is_stmt,isa 0
     237                    ; Begin 71429 cycle delay
     238                    .newblock
     239 000060 140D          PUSHM.A  #1, r13
     240 000062 403D          MOV.W    #23806, r13
         000064 5CFE 
     241 000066 831D  $1:     SUB.W    #1, r13
     242 000068 23FE          JNE      $1
     243 00006a 160D          POPM.A   #1, r13
     244 00006c 4303          NOP
     245                    ; End 71429 cycle delay ; [] |51| 
     246                    .dwpsn  file "../main.c",line 52,column 17,is_stmt,isa 0
     247 00006e C3D2          BIC.B     #1,&PAOUT_L+0         ; [] |52| 
         000070 0000!
     248                    .dwpsn  file "../main.c",line 53,column 17,is_stmt,isa 0
     249 000072 E0F2          XOR.B     #128,&PBOUT_H+0       ; [] |53| 
         000074 0080 
MSP430 Assembler Unix v21.6.1 Thu Sep  5 21:47:41 2024

Copyright (c) 2003-2018 Texas Instruments Incorporated
/var/tmp/TIbXmxGUgIF                                                 PAGE    6

         000076 0000!
     250 000078 3FDF          JMP       $C$L1                 ; [] 
     251                                                      ; [] 
     252            ;* --------------------------------------------------------------------------*
     253 00007a       $C$L4:    
     254                    .dwpsn  file "../main.c",line 56,column 14,is_stmt,isa 0
     255 00007a B3E2          BIT.B     #2,&PAIN_L+0          ; [] |56| 
         00007c 0000!
     256 00007e 201E          JNE       $C$L7                 ; [] |56| 
     257                                                      ; [] |56| 
     258            ;* --------------------------------------------------------------------------*
     259 000080 B3E2          BIT.B     #2,&PAIN_H+0          ; [] |56| 
         000082 0000!
     260 000084 241B          JEQ       $C$L7                 ; [] |56| 
     261                                                      ; [] |56| 
     262            ;* --------------------------------------------------------------------------*
     263                    .dwpsn  file "../main.c",line 58,column 18,is_stmt,isa 0
     264 000086 40B1          MOV.W     #2000,0(SP)           ; [] |58| 
         000088 07D0 
         00008a 0000 
     265                    .dwpsn  file "../main.c",line 58,column 28,is_stmt,isa 0
     266 00008c 9381          TST.W     0(SP)                 ; [] |58| 
         00008e 0000 
     267 000090 2405          JEQ       $C$L6                 ; [] |58| 
     268                                                      ; [] |58| 
     269            ;* --------------------------------------------------------------------------*
     270            ;*   BEGIN LOOP $C$L5
     271            ;*
     272            ;*   Loop source line                : 58
     273            ;*   Loop closing brace source line  : 58
     274            ;*   Known Minimum Trip Count        : 1
     275            ;*   Known Maximum Trip Count        : 4294967295
     276            ;*   Known Max Trip Count Factor     : 1
     277            ;* --------------------------------------------------------------------------*
     278 000092       $C$L5:    
     279                    .dwpsn  file "../main.c",line 58,column 35,is_stmt,isa 0
     280 000092 8391          SUB.W     #1,0(SP)              ; [] |58| 
         000094 0000 
     281                    .dwpsn  file "../main.c",line 58,column 28,is_stmt,isa 0
     282 000096 9381          TST.W     0(SP)                 ; [] |58| 
         000098 0000 
     283 00009a 23FB          JNE       $C$L5                 ; [] |58| 
     284                                                      ; [] |58| 
     285            ;* --------------------------------------------------------------------------*
     286 00009c       $C$L6:    
     287                    .dwpsn  file "../main.c",line 59,column 13,is_stmt,isa 0
     288 00009c B3E2          BIT.B     #2,&PAIN_L+0          ; [] |59| 
         00009e 0000!
     289 0000a0 23CB          JNE       $C$L1                 ; [] |59| 
     290                                                      ; [] |59| 
     291            ;* --------------------------------------------------------------------------*
     292                    .dwpsn  file "../main.c",line 61,column 17,is_stmt,isa 0
     293                    ; Begin 55556 cycle delay
     294                    .newblock
     295 0000a2 140D          PUSHM.A  #1, r13
MSP430 Assembler Unix v21.6.1 Thu Sep  5 21:47:41 2024

Copyright (c) 2003-2018 Texas Instruments Incorporated
/var/tmp/TIbXmxGUgIF                                                 PAGE    7

     296 0000a4 403D          MOV.W    #18515, r13
         0000a6 4853 
     297 0000a8 831D  $1:     SUB.W    #1, r13
     298 0000aa 23FE          JNE      $1
     299 0000ac 160D          POPM.A   #1, r13
     300 0000ae 4303          NOP
     301                    ; End 55556 cycle delay ; [] |61| 
     302                    .dwpsn  file "../main.c",line 62,column 17,is_stmt,isa 0
     303 0000b0 D0F2          OR.B      #128,&PBOUT_H+0       ; [] |62| 
         0000b2 0080 
         0000b4 0000!
     304                    .dwpsn  file "../main.c",line 63,column 17,is_stmt,isa 0
     305 0000b6 E3D2          XOR.B     #1,&PAOUT_L+0         ; [] |63| 
         0000b8 0000!
     306 0000ba 3FBE          JMP       $C$L1                 ; [] 
     307                                                      ; [] 
     308            ;* --------------------------------------------------------------------------*
     309 0000bc       $C$L7:    
     310                    .dwpsn  file "../main.c",line 66,column 14,is_stmt,isa 0
     311 0000bc B3E2          BIT.B     #2,&PAIN_H+0          ; [] |66| 
         0000be 0000!
     312 0000c0 2027          JNE       $C$L10                ; [] |66| 
     313                                                      ; [] |66| 
     314            ;* --------------------------------------------------------------------------*
     315 0000c2 B3E2          BIT.B     #2,&PAIN_L+0          ; [] |66| 
         0000c4 0000!
     316 0000c6 2024          JNE       $C$L10                ; [] |66| 
     317                                                      ; [] |66| 
     318            ;* --------------------------------------------------------------------------*
     319                    .dwpsn  file "../main.c",line 68,column 18,is_stmt,isa 0
     320 0000c8 40B1          MOV.W     #2000,0(SP)           ; [] |68| 
         0000ca 07D0 
         0000cc 0000 
     321                    .dwpsn  file "../main.c",line 68,column 28,is_stmt,isa 0
     322 0000ce 9381          TST.W     0(SP)                 ; [] |68| 
         0000d0 0000 
     323 0000d2 2405          JEQ       $C$L9                 ; [] |68| 
     324                                                      ; [] |68| 
     325            ;* --------------------------------------------------------------------------*
     326            ;*   BEGIN LOOP $C$L8
     327            ;*
     328            ;*   Loop source line                : 68
     329            ;*   Loop closing brace source line  : 68
     330            ;*   Known Minimum Trip Count        : 1
     331            ;*   Known Maximum Trip Count        : 4294967295
     332            ;*   Known Max Trip Count Factor     : 1
     333            ;* --------------------------------------------------------------------------*
     334 0000d4       $C$L8:    
     335                    .dwpsn  file "../main.c",line 68,column 35,is_stmt,isa 0
     336 0000d4 8391          SUB.W     #1,0(SP)              ; [] |68| 
         0000d6 0000 
     337                    .dwpsn  file "../main.c",line 68,column 28,is_stmt,isa 0
     338 0000d8 9381          TST.W     0(SP)                 ; [] |68| 
         0000da 0000 
     339 0000dc 23FB          JNE       $C$L8                 ; [] |68| 
MSP430 Assembler Unix v21.6.1 Thu Sep  5 21:47:41 2024

Copyright (c) 2003-2018 Texas Instruments Incorporated
/var/tmp/TIbXmxGUgIF                                                 PAGE    8

     340                                                      ; [] |68| 
     341            ;* --------------------------------------------------------------------------*
     342 0000de       $C$L9:    
     343                    .dwpsn  file "../main.c",line 69,column 13,is_stmt,isa 0
     344                    ; Begin 166667 cycle delay
     345                    .newblock
     346 0000de 140D          PUSHM.A  #1, r13
     347 0000e0 403D          MOV.W    #55552, r13
         0000e2 D900 
     348 0000e4 831D  $1:     SUB.W    #1, r13
     349 0000e6 23FE          JNE      $1
     350 0000e8 160D          POPM.A   #1, r13
     351 0000ea 4303          NOP
     352                    ; End 166667 cycle delay ; [] |69| 
     353                    .dwpsn  file "../main.c",line 70,column 13,is_stmt,isa 0
     354 0000ec D3D2          OR.B      #1,&PAOUT_L+0         ; [] |70| 
         0000ee 0000!
     355                    .dwpsn  file "../main.c",line 71,column 13,is_stmt,isa 0
     356 0000f0 F0F2          AND.B     #127,&PBOUT_H+0       ; [] |71| 
         0000f2 007F 
         0000f4 0000!
     357                    .dwpsn  file "../main.c",line 72,column 13,is_stmt,isa 0
     358                    ; Begin 166667 cycle delay
     359                    .newblock
     360 0000f6 140D          PUSHM.A  #1, r13
     361 0000f8 403D          MOV.W    #55552, r13
         0000fa D900 
     362 0000fc 831D  $1:     SUB.W    #1, r13
     363 0000fe 23FE          JNE      $1
     364 000100 160D          POPM.A   #1, r13
     365 000102 4303          NOP
     366                    ; End 166667 cycle delay ; [] |72| 
     367                    .dwpsn  file "../main.c",line 73,column 13,is_stmt,isa 0
     368 000104 C3D2          BIC.B     #1,&PAOUT_L+0         ; [] |73| 
         000106 0000!
     369                    .dwpsn  file "../main.c",line 74,column 13,is_stmt,isa 0
     370 000108 D0F2          OR.B      #128,&PBOUT_H+0       ; [] |74| 
         00010a 0080 
         00010c 0000!
     371 00010e 3F94          JMP       $C$L1                 ; [] 
     372                                                      ; [] 
     373            ;* --------------------------------------------------------------------------*
     374 000110       $C$L10:    
     375                    .dwpsn  file "../main.c",line 78,column 13,is_stmt,isa 0
     376 000110 D3D2          OR.B      #1,&PAOUT_L+0         ; [] |78| 
         000112 0000!
     377                    .dwpsn  file "../main.c",line 79,column 13,is_stmt,isa 0
     378 000114 F0F2          AND.B     #127,&PBOUT_H+0       ; [] |79| 
         000116 007F 
         000118 0000!
     379                    .dwpsn  file "../main.c",line 44,column 12,is_stmt,isa 0
     380 00011a 3F8E          JMP       $C$L1                 ; [] |44| 
     381                                                      ; [] |44| 
     382 00011c 4303          NOP       ; [] 
     383            ;* --------------------------------------------------------------------------*
MSP430 Assembler Unix v21.6.1 Thu Sep  5 21:47:41 2024

Copyright (c) 2003-2018 Texas Instruments Incorporated
/var/tmp/TIbXmxGUgIF                                                 PAGE    9

     384                    .dwattr $C$DW$12, DW_AT_TI_end_file("../main.c")
     385                    .dwattr $C$DW$12, DW_AT_TI_end_line(0x52)
     386                    .dwattr $C$DW$12, DW_AT_TI_end_column(0x01)
     387                    .dwendentry
     388                    .dwendtag $C$DW$12
     389            
     390            ;*****************************************************************************
     391            ;* UNDEFINED EXTERNAL REFERENCES                                             *
     392            ;*****************************************************************************
     393                    .global PAIN_L
     394                    .global PAIN_H
     395                    .global PAOUT_L
     396                    .global PAOUT_H
     397                    .global PADIR_L
     398                    .global PADIR_H
     399                    .global PAREN_L
     400                    .global PAREN_H
     401                    .global PBOUT_H
     402                    .global PBDIR_H
     403                    .global WDTCTL
     404            
     405            ;******************************************************************************
     406            ;* BUILD ATTRIBUTES                                                           *
     407            ;******************************************************************************
     408                    .battr "TI", Tag_File, 1, Tag_LPM_INFO(1)
     409                    .battr "TI", Tag_File, 1, Tag_PORTS_INIT_INFO("012345678901ABCDEFGHIJ0000000000001111000000000
     410                    .battr "TI", Tag_File, 1, Tag_LEA_INFO(1)
     411                    .battr "TI", Tag_File, 1, Tag_HW_MPY32_INFO(2)
     412                    .battr "TI", Tag_File, 1, Tag_HW_MPY_ISR_INFO(1)
     413                    .battr "TI", Tag_File, 1, Tag_HW_MPY_INLINE_INFO(1)
     414                    .battr "mspabi", Tag_File, 1, Tag_enum_size(3)
     415            
     416            ;******************************************************************************
     417            ;* TYPE INFORMATION                                                           *
     418            ;******************************************************************************
     419            $C$DW$T$2       .dwtag  DW_TAG_unspecified_type
     420                    .dwattr $C$DW$T$2, DW_AT_name("void")
     421            
     422            
     423            $C$DW$T$20      .dwtag  DW_TAG_subroutine_type
     424                    .dwattr $C$DW$T$20, DW_AT_language(DW_LANG_C)
     425                    .dwendtag $C$DW$T$20
     426            
     427            $C$DW$T$21      .dwtag  DW_TAG_pointer_type
     428                    .dwattr $C$DW$T$21, DW_AT_type(*$C$DW$T$20)
     429                    .dwattr $C$DW$T$21, DW_AT_address_class(0x14)
     430            
     431            $C$DW$T$22      .dwtag  DW_TAG_typedef
     432                    .dwattr $C$DW$T$22, DW_AT_name("__SFR_FARPTR")
     433                    .dwattr $C$DW$T$22, DW_AT_type(*$C$DW$T$21)
     434                    .dwattr $C$DW$T$22, DW_AT_language(DW_LANG_C)
     435                    .dwattr $C$DW$T$22, DW_AT_decl_file("/Applications/ti/ccs1280/ccs/ccs_base/msp430/include/msp4
     436                    .dwattr $C$DW$T$22, DW_AT_decl_line(0x4a)
     437                    .dwattr $C$DW$T$22, DW_AT_decl_column(0x11)
     438            
MSP430 Assembler Unix v21.6.1 Thu Sep  5 21:47:41 2024

Copyright (c) 2003-2018 Texas Instruments Incorporated
/var/tmp/TIbXmxGUgIF                                                 PAGE   10

     439            $C$DW$T$4       .dwtag  DW_TAG_base_type
     440                    .dwattr $C$DW$T$4, DW_AT_encoding(DW_ATE_boolean)
     441                    .dwattr $C$DW$T$4, DW_AT_name("bool")
     442                    .dwattr $C$DW$T$4, DW_AT_byte_size(0x01)
     443            
     444            $C$DW$T$5       .dwtag  DW_TAG_base_type
     445                    .dwattr $C$DW$T$5, DW_AT_encoding(DW_ATE_signed_char)
     446                    .dwattr $C$DW$T$5, DW_AT_name("signed char")
     447                    .dwattr $C$DW$T$5, DW_AT_byte_size(0x01)
     448            
     449            $C$DW$T$6       .dwtag  DW_TAG_base_type
     450                    .dwattr $C$DW$T$6, DW_AT_encoding(DW_ATE_unsigned_char)
     451                    .dwattr $C$DW$T$6, DW_AT_name("unsigned char")
     452                    .dwattr $C$DW$T$6, DW_AT_byte_size(0x01)
     453            
     454            $C$DW$14        .dwtag  DW_TAG_TI_far_type
     455                    .dwattr $C$DW$14, DW_AT_type(*$C$DW$T$6)
     456            
     457            $C$DW$T$23      .dwtag  DW_TAG_volatile_type
     458                    .dwattr $C$DW$T$23, DW_AT_type(*$C$DW$14)
     459            
     460            $C$DW$T$7       .dwtag  DW_TAG_base_type
     461                    .dwattr $C$DW$T$7, DW_AT_encoding(DW_ATE_signed_char)
     462                    .dwattr $C$DW$T$7, DW_AT_name("wchar_t")
     463                    .dwattr $C$DW$T$7, DW_AT_byte_size(0x02)
     464            
     465            $C$DW$T$8       .dwtag  DW_TAG_base_type
     466                    .dwattr $C$DW$T$8, DW_AT_encoding(DW_ATE_signed)
     467                    .dwattr $C$DW$T$8, DW_AT_name("short")
     468                    .dwattr $C$DW$T$8, DW_AT_byte_size(0x02)
     469            
     470            $C$DW$T$9       .dwtag  DW_TAG_base_type
     471                    .dwattr $C$DW$T$9, DW_AT_encoding(DW_ATE_unsigned)
     472                    .dwattr $C$DW$T$9, DW_AT_name("unsigned short")
     473                    .dwattr $C$DW$T$9, DW_AT_byte_size(0x02)
     474            
     475            $C$DW$T$10      .dwtag  DW_TAG_base_type
     476                    .dwattr $C$DW$T$10, DW_AT_encoding(DW_ATE_signed)
     477                    .dwattr $C$DW$T$10, DW_AT_name("int")
     478                    .dwattr $C$DW$T$10, DW_AT_byte_size(0x02)
     479            
     480            $C$DW$T$11      .dwtag  DW_TAG_base_type
     481                    .dwattr $C$DW$T$11, DW_AT_encoding(DW_ATE_unsigned)
     482                    .dwattr $C$DW$T$11, DW_AT_name("unsigned int")
     483                    .dwattr $C$DW$T$11, DW_AT_byte_size(0x02)
     484            
     485            $C$DW$15        .dwtag  DW_TAG_TI_far_type
     486                    .dwattr $C$DW$15, DW_AT_type(*$C$DW$T$11)
     487            
     488            $C$DW$T$24      .dwtag  DW_TAG_volatile_type
     489                    .dwattr $C$DW$T$24, DW_AT_type(*$C$DW$15)
     490            
     491            $C$DW$T$12      .dwtag  DW_TAG_base_type
     492                    .dwattr $C$DW$T$12, DW_AT_encoding(DW_ATE_signed)
     493                    .dwattr $C$DW$T$12, DW_AT_name("long")
MSP430 Assembler Unix v21.6.1 Thu Sep  5 21:47:41 2024

Copyright (c) 2003-2018 Texas Instruments Incorporated
/var/tmp/TIbXmxGUgIF                                                 PAGE   11

     494                    .dwattr $C$DW$T$12, DW_AT_byte_size(0x04)
     495            
     496            $C$DW$T$13      .dwtag  DW_TAG_base_type
     497                    .dwattr $C$DW$T$13, DW_AT_encoding(DW_ATE_unsigned)
     498                    .dwattr $C$DW$T$13, DW_AT_name("unsigned long")
     499                    .dwattr $C$DW$T$13, DW_AT_byte_size(0x04)
     500            
     501            $C$DW$T$14      .dwtag  DW_TAG_base_type
     502                    .dwattr $C$DW$T$14, DW_AT_encoding(DW_ATE_signed)
     503                    .dwattr $C$DW$T$14, DW_AT_name("long long")
     504                    .dwattr $C$DW$T$14, DW_AT_byte_size(0x08)
     505            
     506            $C$DW$T$15      .dwtag  DW_TAG_base_type
     507                    .dwattr $C$DW$T$15, DW_AT_encoding(DW_ATE_unsigned)
     508                    .dwattr $C$DW$T$15, DW_AT_name("unsigned long long")
     509                    .dwattr $C$DW$T$15, DW_AT_byte_size(0x08)
     510            
     511            $C$DW$T$16      .dwtag  DW_TAG_base_type
     512                    .dwattr $C$DW$T$16, DW_AT_encoding(DW_ATE_float)
     513                    .dwattr $C$DW$T$16, DW_AT_name("float")
     514                    .dwattr $C$DW$T$16, DW_AT_byte_size(0x04)
     515            
     516            $C$DW$T$17      .dwtag  DW_TAG_base_type
     517                    .dwattr $C$DW$T$17, DW_AT_encoding(DW_ATE_float)
     518                    .dwattr $C$DW$T$17, DW_AT_name("double")
     519                    .dwattr $C$DW$T$17, DW_AT_byte_size(0x08)
     520            
     521            $C$DW$T$18      .dwtag  DW_TAG_base_type
     522                    .dwattr $C$DW$T$18, DW_AT_encoding(DW_ATE_float)
     523                    .dwattr $C$DW$T$18, DW_AT_name("long double")
     524                    .dwattr $C$DW$T$18, DW_AT_byte_size(0x08)
     525            
     526                    .dwattr $C$DW$CU, DW_AT_language(DW_LANG_C)
     527            
     528            ;***************************************************************
     529            ;* DWARF CIE ENTRIES                                           *
     530            ;***************************************************************
     531            
     532            $C$DW$CIE       .dwcie 16
     533                    .dwcfi  cfa_register, 1
     534                    .dwcfi  cfa_offset, 0
     535                    .dwcfi  same_value, 0
     536                    .dwcfi  same_value, 1
     537                    .dwcfi  same_value, 3
     538                    .dwcfi  same_value, 4
     539                    .dwcfi  same_value, 5
     540                    .dwcfi  same_value, 6
     541                    .dwcfi  same_value, 7
     542                    .dwcfi  same_value, 8
     543                    .dwcfi  same_value, 9
     544                    .dwcfi  same_value, 10
     545                    .dwendentry
     546            
     547            ;***************************************************************
     548            ;* DWARF REGISTER MAP                                          *
MSP430 Assembler Unix v21.6.1 Thu Sep  5 21:47:41 2024

Copyright (c) 2003-2018 Texas Instruments Incorporated
/var/tmp/TIbXmxGUgIF                                                 PAGE   12

     549            ;***************************************************************
     550            
     551            $C$DW$16        .dwtag  DW_TAG_TI_assign_register
     552                    .dwattr $C$DW$16, DW_AT_name("PC")
     553                    .dwattr $C$DW$16, DW_AT_location[DW_OP_reg0]
     554            
     555            $C$DW$17        .dwtag  DW_TAG_TI_assign_register
     556                    .dwattr $C$DW$17, DW_AT_name("SP")
     557                    .dwattr $C$DW$17, DW_AT_location[DW_OP_reg1]
     558            
     559            $C$DW$18        .dwtag  DW_TAG_TI_assign_register
     560                    .dwattr $C$DW$18, DW_AT_name("SR")
     561                    .dwattr $C$DW$18, DW_AT_location[DW_OP_reg2]
     562            
     563            $C$DW$19        .dwtag  DW_TAG_TI_assign_register
     564                    .dwattr $C$DW$19, DW_AT_name("CG")
     565                    .dwattr $C$DW$19, DW_AT_location[DW_OP_reg3]
     566            
     567            $C$DW$20        .dwtag  DW_TAG_TI_assign_register
     568                    .dwattr $C$DW$20, DW_AT_name("r4")
     569                    .dwattr $C$DW$20, DW_AT_location[DW_OP_reg4]
     570            
     571            $C$DW$21        .dwtag  DW_TAG_TI_assign_register
     572                    .dwattr $C$DW$21, DW_AT_name("r5")
     573                    .dwattr $C$DW$21, DW_AT_location[DW_OP_reg5]
     574            
     575            $C$DW$22        .dwtag  DW_TAG_TI_assign_register
     576                    .dwattr $C$DW$22, DW_AT_name("r6")
     577                    .dwattr $C$DW$22, DW_AT_location[DW_OP_reg6]
     578            
     579            $C$DW$23        .dwtag  DW_TAG_TI_assign_register
     580                    .dwattr $C$DW$23, DW_AT_name("r7")
     581                    .dwattr $C$DW$23, DW_AT_location[DW_OP_reg7]
     582            
     583            $C$DW$24        .dwtag  DW_TAG_TI_assign_register
     584                    .dwattr $C$DW$24, DW_AT_name("r8")
     585                    .dwattr $C$DW$24, DW_AT_location[DW_OP_reg8]
     586            
     587            $C$DW$25        .dwtag  DW_TAG_TI_assign_register
     588                    .dwattr $C$DW$25, DW_AT_name("r9")
     589                    .dwattr $C$DW$25, DW_AT_location[DW_OP_reg9]
     590            
     591            $C$DW$26        .dwtag  DW_TAG_TI_assign_register
     592                    .dwattr $C$DW$26, DW_AT_name("r10")
     593                    .dwattr $C$DW$26, DW_AT_location[DW_OP_reg10]
     594            
     595            $C$DW$27        .dwtag  DW_TAG_TI_assign_register
     596                    .dwattr $C$DW$27, DW_AT_name("r11")
     597                    .dwattr $C$DW$27, DW_AT_location[DW_OP_reg11]
     598            
     599            $C$DW$28        .dwtag  DW_TAG_TI_assign_register
     600                    .dwattr $C$DW$28, DW_AT_name("r12")
     601                    .dwattr $C$DW$28, DW_AT_location[DW_OP_reg12]
     602            
     603            $C$DW$29        .dwtag  DW_TAG_TI_assign_register
MSP430 Assembler Unix v21.6.1 Thu Sep  5 21:47:41 2024

Copyright (c) 2003-2018 Texas Instruments Incorporated
/var/tmp/TIbXmxGUgIF                                                 PAGE   13

     604                    .dwattr $C$DW$29, DW_AT_name("r13")
     605                    .dwattr $C$DW$29, DW_AT_location[DW_OP_reg13]
     606            
     607            $C$DW$30        .dwtag  DW_TAG_TI_assign_register
     608                    .dwattr $C$DW$30, DW_AT_name("r14")
     609                    .dwattr $C$DW$30, DW_AT_location[DW_OP_reg14]
     610            
     611            $C$DW$31        .dwtag  DW_TAG_TI_assign_register
     612                    .dwattr $C$DW$31, DW_AT_name("r15")
     613                    .dwattr $C$DW$31, DW_AT_location[DW_OP_reg15]
     614            
     615            $C$DW$32        .dwtag  DW_TAG_TI_assign_register
     616                    .dwattr $C$DW$32, DW_AT_name("CIE_RETA")
     617                    .dwattr $C$DW$32, DW_AT_location[DW_OP_reg16]
     618            
     619                    .dwendtag $C$DW$CU
     620            

No Assembly Errors, No Assembly Warnings
